target datalayout = "e-m:e-p270:32:32-p271:32:32-p272:64:64-i64:64-i128:128-f80:128-n8:16:32:64-S128"
target triple = "x86_64-pc-linux-gnu"

@.str.150 = private unnamed_addr constant [3 x i8] c"%s\00", align 1
@.str.169 = private unnamed_addr constant [8 x i8] c"unknown\00", align 1
@hf_gsm_a_dtap_test_loop = internal global i32 0, align 4
@hf_gsm_a_dtap_subchannel = internal global i32 0, align 4
@.str.946 = private unnamed_addr constant [2 x i8] c"I\00", align 1
@.str.947 = private unnamed_addr constant [2 x i8] c"F\00", align 1
@.str.948 = private unnamed_addr constant [2 x i8] c"E\00", align 1
@.str.949 = private unnamed_addr constant [2 x i8] c"D\00", align 1
@.str.950 = private unnamed_addr constant [2 x i8] c"C\00", align 1
@.str.951 = private unnamed_addr constant [2 x i8] c"B\00", align 1
@.str.952 = private unnamed_addr constant [2 x i8] c"A\00", align 1

; Function Attrs: null_pointer_is_valid sspstrong uwtable
define internal zeroext i16 @de_tp_sub_channel(ptr noundef %0, ptr noundef %1, ptr noundef %2, i32 noundef %3, i32 noundef %4, ptr noundef %5, i32 noundef %6) #1 {
  %8 = alloca ptr, align 8
  %9 = alloca ptr, align 8
  %10 = alloca ptr, align 8
  %11 = alloca i32, align 4
  %12 = alloca i32, align 4
  %13 = alloca ptr, align 8
  %14 = alloca i32, align 4
  %15 = alloca i32, align 4
  %16 = alloca i8, align 1
  %17 = alloca ptr, align 8
  store ptr %0, ptr %8, align 8
  store ptr %1, ptr %9, align 8
  store ptr %2, ptr %10, align 8
  store i32 %3, ptr %11, align 4
  store i32 %4, ptr %12, align 4
  store ptr %5, ptr %13, align 8
  store i32 %6, ptr %14, align 4
  call void @llvm.lifetime.start.p0(i64 4, ptr %15) #7
  call void @llvm.lifetime.start.p0(i64 1, ptr %16) #7
  call void @llvm.lifetime.start.p0(i64 8, ptr %17) #7
  %18 = load i32, ptr %11, align 4
  store i32 %18, ptr %15, align 4
  %19 = load ptr, ptr %8, align 8
  %20 = load i32, ptr %15, align 4
  %21 = call zeroext i8 @tvb_get_uint8(ptr noundef %19, i32 noundef %20)
  %22 = zext i8 %21 to i32
  %23 = and i32 %22, 63
  %24 = trunc i32 %23 to i8
  store i8 %24, ptr %16, align 1
  %25 = load i8, ptr %16, align 1
  %26 = zext i8 %25 to i32
  %27 = and i32 %26, 56
  %28 = icmp eq i32 %27, 56
  br i1 %28, label %29, label %30

29:                                               ; preds = %7
  store ptr @.str.946, ptr %17, align 8
  br label %73

30:                                               ; preds = %7
  %31 = load i8, ptr %16, align 1
  %32 = zext i8 %31 to i32
  %33 = and i32 %32, 56
  %34 = icmp eq i32 %33, 24
  br i1 %34, label %35, label %36

35:                                               ; preds = %30
  store ptr @.str.947, ptr %17, align 8
  br label %72

36:                                               ; preds = %30
  %37 = load i8, ptr %16, align 1
  %38 = zext i8 %37 to i32
  %39 = and i32 %38, 56
  %40 = icmp eq i32 %39, 16
  br i1 %40, label %41, label %42

41:                                               ; preds = %36
  store ptr @.str.948, ptr %17, align 8
  br label %71

42:                                               ; preds = %36
  %43 = load i8, ptr %16, align 1
  %44 = zext i8 %43 to i32
  %45 = and i32 %44, 56
  %46 = icmp eq i32 %45, 8
  br i1 %46, label %47, label %48

47:                                               ; preds = %42
  store ptr @.str.949, ptr %17, align 8
  br label %70

48:                                               ; preds = %42
  %49 = load i8, ptr %16, align 1
  %50 = zext i8 %49 to i32
  %51 = and i32 %50, 60
  %52 = icmp eq i32 %51, 4
  br i1 %52, label %53, label %54

53:                                               ; preds = %48
  store ptr @.str.950, ptr %17, align 8
  br label %69

54:                                               ; preds = %48
  %55 = load i8, ptr %16, align 1
  %56 = zext i8 %55 to i32
  %57 = and i32 %56, 62
  %58 = icmp eq i32 %57, 2
  br i1 %58, label %59, label %60

59:                                               ; preds = %54
  store ptr @.str.951, ptr %17, align 8
  br label %68

60:                                               ; preds = %54
  %61 = load i8, ptr %16, align 1
  %62 = zext i8 %61 to i32
  %63 = and i32 %62, 62
  %64 = icmp eq i32 %63, 0
  br i1 %64, label %65, label %66

65:                                               ; preds = %60
  store ptr @.str.952, ptr %17, align 8
  br label %67

66:                                               ; preds = %60
  store ptr @.str.169, ptr %17, align 8
  br label %67

67:                                               ; preds = %66, %65
  br label %68

68:                                               ; preds = %67, %59
  br label %69

69:                                               ; preds = %68, %53
  br label %70

70:                                               ; preds = %69, %47
  br label %71

71:                                               ; preds = %70, %41
  br label %72

72:                                               ; preds = %71, %35
  br label %73

73:                                               ; preds = %72, %29
  %74 = load ptr, ptr %9, align 8
  %75 = load i32, ptr @hf_gsm_a_dtap_test_loop, align 4
  %76 = load ptr, ptr %8, align 8
  %77 = load i32, ptr %15, align 4
  %78 = load i8, ptr %16, align 1
  %79 = zext i8 %78 to i32
  %80 = load ptr, ptr %17, align 8
  %81 = call ptr (ptr, i32, ptr, i32, i32, i32, ptr, ...) @proto_tree_add_uint_format_value(ptr noundef %74, i32 noundef %75, ptr noundef %76, i32 noundef %77, i32 noundef 1, i32 noundef %79, ptr noundef @.str.150, ptr noundef %80)
  %82 = load ptr, ptr %9, align 8
  %83 = load i32, ptr @hf_gsm_a_dtap_subchannel, align 4
  %84 = load ptr, ptr %8, align 8
  %85 = load i32, ptr %15, align 4
  %86 = call ptr @proto_tree_add_item(ptr noundef %82, i32 noundef %83, ptr noundef %84, i32 noundef %85, i32 noundef 1, i32 noundef 0)
  %87 = load i32, ptr %15, align 4
  %88 = add i32 %87, 1
  store i32 %88, ptr %15, align 4
  %89 = load i32, ptr %15, align 4
  %90 = load i32, ptr %11, align 4
  %91 = sub i32 %89, %90
  %92 = trunc i32 %91 to i16
  call void @llvm.lifetime.end.p0(i64 8, ptr %17) #7
  call void @llvm.lifetime.end.p0(i64 1, ptr %16) #7
  call void @llvm.lifetime.end.p0(i64 4, ptr %15) #7
  ret i16 %92
}