; Function Attrs: null_pointer_is_valid sspstrong uwtable
define internal noundef zeroext i16 @de_tp_sub_channel(ptr noundef %0, ptr noundef %1, ptr readnone captures(none) %2, i32 noundef %3, i32 %4, ptr readnone captures(none) %5, i32 %6) #1 {
  %8 = tail call zeroext i8 @tvb_get_uint8(ptr noundef %0, i32 noundef %3)
  %9 = and i8 %8, 63
  %10 = zext nneg i8 %9 to i32
  %11 = add nsw i32 %10, -8
  %12 = lshr i32 %11, 3
  %13 = icmp ult i32 %11, 56
  br i1 %13, label %switch.hole_check, label %14

14:                                               ; preds = %switch.hole_check, %7
  %15 = and i32 %10, 60
  %16 = icmp eq i32 %15, 4
  br i1 %16, label %20, label %17

17:                                               ; preds = %14
  %18 = and i32 %10, 62
  %switch.selectcmp = icmp eq i32 %18, 0
  %switch.select = select i1 %switch.selectcmp, ptr @.str.952, ptr @.str.169
  %switch.selectcmp22 = icmp eq i32 %18, 2
  %switch.select23 = select i1 %switch.selectcmp22, ptr @.str.951, ptr %switch.select
  br label %20

switch.hole_check:                                ; preds = %7
  %switch.maskindex = trunc nuw i32 %12 to i8
  %switch.shifted = lshr i8 71, %switch.maskindex
  %switch.lobit = trunc i8 %switch.shifted to i1
  br i1 %switch.lobit, label %switch.lookup, label %14

switch.lookup:                                    ; preds = %switch.hole_check
  %19 = zext nneg i32 %12 to i64
  %switch.gep = getelementptr inbounds nuw [7 x ptr], ptr @switch.table.de_tp_sub_channel, i64 0, i64 %19
  %switch.load = load ptr, ptr %switch.gep, align 8
  br label %20

20:                                               ; preds = %switch.lookup, %17, %14
  %.0 = phi ptr [ @.str.950, %14 ], [ %switch.select23, %17 ], [ %switch.load, %switch.lookup ]
  %21 = load i32, ptr @hf_gsm_a_dtap_test_loop, align 4
  %22 = tail call ptr (ptr, i32, ptr, i32, i32, i32, ptr, ...) @proto_tree_add_uint_format_value(ptr noundef %1, i32 noundef %21, ptr noundef %0, i32 noundef %3, i32 noundef 1, i32 noundef %10, ptr noundef nonnull @.str.150, ptr noundef nonnull %.0)
  %23 = load i32, ptr @hf_gsm_a_dtap_subchannel, align 4
  %24 = tail call ptr @proto_tree_add_item(ptr noundef %1, i32 noundef %23, ptr noundef %0, i32 noundef %3, i32 noundef 1, i32 noundef 0)
  ret i16 1
}